; Function Attrs: nounwind uwtable
define range(i32 0, 2) i32 @nk_selectable_symbol_label(ptr noundef captures(address_is_null) %0, i32 noundef %1, ptr noundef %2, i32 noundef %3, ptr noundef captures(address_is_null) %4) local_unnamed_addr #18 {
  %.not5.i = icmp eq ptr %2, null
  br i1 %.not5.i, label %nk_strlen.exit, label %.lr.ph.i.preheader

.lr.ph.i.preheader:                               ; preds = %5
  %6 = load i8, ptr %2, align 1, !tbaa !9
  %.not4.i5 = icmp eq i8 %6, 0
  br i1 %.not4.i5, label %nk_strlen.exit, label %.lr.ph.i

.lr.ph.i:                                         ; preds = %.lr.ph.i.preheader, %.lr.ph.i
  %.036.i7 = phi ptr [ %7, %.lr.ph.i ], [ %2, %.lr.ph.i.preheader ]
  %.07.i6 = phi i32 [ %8, %.lr.ph.i ], [ 0, %.lr.ph.i.preheader ]
  %7 = getelementptr inbounds nuw i8, ptr %.036.i7, i64 1
  %8 = add nuw nsw i32 %.07.i6, 1
  %9 = load i8, ptr %7, align 1, !tbaa !9
  %.not4.i = icmp eq i8 %9, 0
  br i1 %.not4.i, label %nk_strlen.exit, label %.lr.ph.i

nk_strlen.exit:                                   ; preds = %.lr.ph.i, %.lr.ph.i.preheader, %5
  %.0.lcssa.i = phi i32 [ 0, %5 ], [ 0, %.lr.ph.i.preheader ], [ %8, %.lr.ph.i ]
  %10 = tail call i32 @nk_selectable_symbol_text(ptr noundef %0, i32 noundef %1, ptr noundef %2, i32 noundef %.0.lcssa.i, i32 noundef %3, ptr noundef %4)
  ret i32 %10
}